target datalayout = "e-m:e-p270:32:32-p271:32:32-p272:64:64-i64:64-f80:128-n8:16:32:64-S128"
target triple = "x86_64-pc-linux-gnu"

@.str = private unnamed_addr constant [3 x i8] c"%d\00", align 1
@.str.1 = private unnamed_addr constant [4 x i8] c"%d,\00", align 1

; Function Attrs: noinline nounwind uwtable
define dso_local void @main() #0 {
  %1 = alloca [300 x i32], align 16
  %2 = alloca [300 x i32], align 16
  %3 = alloca i32, align 4
  %4 = alloca i32, align 4
  %5 = alloca i32, align 4
  %6 = alloca i32, align 4
  %7 = alloca i32, align 4
  %8 = alloca float, align 4
  %9 = alloca [300 x float], align 16
  %10 = bitcast [300 x i32]* %2 to i8*
  call void @llvm.memset.p0i8.i64(i8* align 16 %10, i8 0, i64 1200, i1 false)
  store i32 0, i32* %6, align 4
  store i32 0, i32* %7, align 4
  store float 0.000000e+00, float* %8, align 4
  %11 = call i32 (i8*, ...) @__isoc99_scanf(i8* getelementptr inbounds ([3 x i8], [3 x i8]* @.str, i64 0, i64 0), i32* %5)
  store i32 0, i32* %3, align 4
  br label %12

12:                                               ; preds = %21, %0
  %13 = load i32, i32* %3, align 4
  %14 = load i32, i32* %5, align 4
  %15 = icmp slt i32 %13, %14
  br i1 %15, label %16, label %24

16:                                               ; preds = %12
  %17 = load i32, i32* %3, align 4
  %18 = sext i32 %17 to i64
  %19 = getelementptr inbounds [300 x i32], [300 x i32]* %1, i64 0, i64 %18
  %20 = call i32 (i8*, ...) @__isoc99_scanf(i8* getelementptr inbounds ([3 x i8], [3 x i8]* @.str, i64 0, i64 0), i32* %19)
  br label %21

21:                                               ; preds = %16
  %22 = load i32, i32* %3, align 4
  %23 = add nsw i32 %22, 1
  store i32 %23, i32* %3, align 4
  br label %12

24:                                               ; preds = %12
  store i32 0, i32* %3, align 4
  br label %25

25:                                               ; preds = %37, %24
  %26 = load i32, i32* %3, align 4
  %27 = load i32, i32* %5, align 4
  %28 = icmp slt i32 %26, %27
  br i1 %28, label %29, label %40

29:                                               ; preds = %25
  %30 = load float, float* %8, align 4
  %31 = load i32, i32* %3, align 4
  %32 = sext i32 %31 to i64
  %33 = getelementptr inbounds [300 x i32], [300 x i32]* %1, i64 0, i64 %32
  %34 = load i32, i32* %33, align 4
  %35 = sitofp i32 %34 to float
  %36 = fadd float %30, %35
  store float %36, float* %8, align 4
  br label %37

37:                                               ; preds = %29
  %38 = load i32, i32* %3, align 4
  %39 = add nsw i32 %38, 1
  store i32 %39, i32* %3, align 4
  br label %25

40:                                               ; preds = %25
  %41 = load float, float* %8, align 4
  %42 = load i32, i32* %5, align 4
  %43 = sitofp i32 %42 to float
  %44 = fdiv float %41, %43
  store float %44, float* %8, align 4
  store i32 0, i32* %3, align 4
  br label %45

45:                                               ; preds = %80, %40
  %46 = load i32, i32* %3, align 4
  %47 = load i32, i32* %5, align 4
  %48 = icmp slt i32 %46, %47
  br i1 %48, label %49, label %83

49:                                               ; preds = %45
  %50 = load i32, i32* %3, align 4
  %51 = sext i32 %50 to i64
  %52 = getelementptr inbounds [300 x i32], [300 x i32]* %1, i64 0, i64 %51
  %53 = load i32, i32* %52, align 4
  %54 = sitofp i32 %53 to float
  %55 = load float, float* %8, align 4
  %56 = fcmp ogt float %54, %55
  br i1 %56, label %57, label %68

57:                                               ; preds = %49
  %58 = load i32, i32* %3, align 4
  %59 = sext i32 %58 to i64
  %60 = getelementptr inbounds [300 x i32], [300 x i32]* %1, i64 0, i64 %59
  %61 = load i32, i32* %60, align 4
  %62 = sitofp i32 %61 to float
  %63 = load float, float* %8, align 4
  %64 = fsub float %62, %63
  %65 = load i32, i32* %3, align 4
  %66 = sext i32 %65 to i64
  %67 = getelementptr inbounds [300 x float], [300 x float]* %9, i64 0, i64 %66
  store float %64, float* %67, align 4
  br label %79

68:                                               ; preds = %49
  %69 = load float, float* %8, align 4
  %70 = load i32, i32* %3, align 4
  %71 = sext i32 %70 to i64
  %72 = getelementptr inbounds [300 x i32], [300 x i32]* %1, i64 0, i64 %71
  %73 = load i32, i32* %72, align 4
  %74 = sitofp i32 %73 to float
  %75 = fsub float %69, %74
  %76 = load i32, i32* %3, align 4
  %77 = sext i32 %76 to i64
  %78 = getelementptr inbounds [300 x float], [300 x float]* %9, i64 0, i64 %77
  store float %75, float* %78, align 4
  br label %79

79:                                               ; preds = %68, %57
  br label %80

80:                                               ; preds = %79
  %81 = load i32, i32* %3, align 4
  %82 = add nsw i32 %81, 1
  store i32 %82, i32* %3, align 4
  br label %45

83:                                               ; preds = %45
  store i32 0, i32* %3, align 4
  br label %84

84:                                               ; preds = %114, %83
  %85 = load i32, i32* %3, align 4
  %86 = load i32, i32* %5, align 4
  %87 = icmp slt i32 %85, %86
  br i1 %87, label %88, label %117

88:                                               ; preds = %84
  store i32 0, i32* %4, align 4
  br label %89

89:                                               ; preds = %110, %88
  %90 = load i32, i32* %4, align 4
  %91 = load i32, i32* %5, align 4
  %92 = icmp slt i32 %90, %91
  br i1 %92, label %93, label %113

93:                                               ; preds = %89
  %94 = load i32, i32* %4, align 4
  %95 = sext i32 %94 to i64
  %96 = getelementptr inbounds [300 x float], [300 x float]* %9, i64 0, i64 %95
  %97 = load float, float* %96, align 4
  %98 = load i32, i32* %3, align 4
  %99 = sext i32 %98 to i64
  %100 = getelementptr inbounds [300 x float], [300 x float]* %9, i64 0, i64 %99
  %101 = load float, float* %100, align 4
  %102 = fcmp ogt float %97, %101
  br i1 %102, label %103, label %109

103:                                              ; preds = %93
  %104 = load i32, i32* %3, align 4
  %105 = sext i32 %104 to i64
  %106 = getelementptr inbounds [300 x i32], [300 x i32]* %2, i64 0, i64 %105
  %107 = load i32, i32* %106, align 4
  %108 = add nsw i32 %107, 1
  store i32 %108, i32* %106, align 4
  br label %109

109:                                              ; preds = %103, %93
  br label %110

110:                                              ; preds = %109
  %111 = load i32, i32* %4, align 4
  %112 = add nsw i32 %111, 1
  store i32 %112, i32* %4, align 4
  br label %89

113:                                              ; preds = %89
  br label %114

114:                                              ; preds = %113
  %115 = load i32, i32* %3, align 4
  %116 = add nsw i32 %115, 1
  store i32 %116, i32* %3, align 4
  br label %84

117:                                              ; preds = %84
  store i32 0, i32* %3, align 4
  br label %118

118:                                              ; preds = %132, %117
  %119 = load i32, i32* %3, align 4
  %120 = load i32, i32* %5, align 4
  %121 = icmp slt i32 %119, %120
  br i1 %121, label %122, label %135

122:                                              ; preds = %118
  %123 = load i32, i32* %3, align 4
  %124 = sext i32 %123 to i64
  %125 = getelementptr inbounds [300 x i32], [300 x i32]* %2, i64 0, i64 %124
  %126 = load i32, i32* %125, align 4
  %127 = icmp eq i32 %126, 0
  br i1 %127, label %128, label %131

128:                                              ; preds = %122
  %129 = load i32, i32* %6, align 4
  %130 = add nsw i32 %129, 1
  store i32 %130, i32* %6, align 4
  br label %131

131:                                              ; preds = %128, %122
  br label %132

132:                                              ; preds = %131
  %133 = load i32, i32* %3, align 4
  %134 = add nsw i32 %133, 1
  store i32 %134, i32* %3, align 4
  br label %118

135:                                              ; preds = %118
  store i32 0, i32* %3, align 4
  br label %136

136:                                              ; preds = %166, %135
  %137 = load i32, i32* %3, align 4
  %138 = load i32, i32* %5, align 4
  %139 = icmp slt i32 %137, %138
  br i1 %139, label %140, label %169

140:                                              ; preds = %136
  %141 = load i32, i32* %3, align 4
  %142 = sext i32 %141 to i64
  %143 = getelementptr inbounds [300 x i32], [300 x i32]* %2, i64 0, i64 %142
  %144 = load i32, i32* %143, align 4
  %145 = icmp eq i32 %144, 0
  br i1 %145, label %146, label %165

146:                                              ; preds = %140
  %147 = load i32, i32* %7, align 4
  %148 = add nsw i32 %147, 1
  store i32 %148, i32* %7, align 4
  %149 = load i32, i32* %7, align 4
  %150 = load i32, i32* %6, align 4
  %151 = icmp eq i32 %149, %150
  br i1 %151, label %152, label %158

152:                                              ; preds = %146
  %153 = load i32, i32* %3, align 4
  %154 = sext i32 %153 to i64
  %155 = getelementptr inbounds [300 x i32], [300 x i32]* %1, i64 0, i64 %154
  %156 = load i32, i32* %155, align 4
  %157 = call i32 (i8*, ...) @printf(i8* getelementptr inbounds ([3 x i8], [3 x i8]* @.str, i64 0, i64 0), i32 %156)
  br label %164

158:                                              ; preds = %146
  %159 = load i32, i32* %3, align 4
  %160 = sext i32 %159 to i64
  %161 = getelementptr inbounds [300 x i32], [300 x i32]* %1, i64 0, i64 %160
  %162 = load i32, i32* %161, align 4
  %163 = call i32 (i8*, ...) @printf(i8* getelementptr inbounds ([4 x i8], [4 x i8]* @.str.1, i64 0, i64 0), i32 %162)
  br label %164

164:                                              ; preds = %158, %152
  br label %165

165:                                              ; preds = %164, %140
  br label %166

166:                                              ; preds = %165
  %167 = load i32, i32* %3, align 4
  %168 = add nsw i32 %167, 1
  store i32 %168, i32* %3, align 4
  br label %136

169:                                              ; preds = %136
  ret void
}